target datalayout = "e-m:e-p270:32:32-p271:32:32-p272:64:64-i64:64-i128:128-f80:128-n8:16:32:64-S128"
target triple = "x86_64-pc-linux-gnu"

%struct.expert_field = type { i32, i32 }
%struct._packet_info = type { ptr, ptr, i32, i32, %struct.nstime_t, %struct.nstime_t, %struct.nstime_t, i32, ptr, ptr, ptr, ptr, %struct._address, %struct._address, %struct._address, %struct._address, %struct._address, %struct._address, i32, ptr, i32, %struct.anon, i32, i32, i32, i32, ptr, i32, ptr, ptr, i16, i16, i32, i32, i16, i32, i32, ptr, ptr, ptr, i8, i8, i16, i16, i16, i32, i16, i16, ptr, ptr, ptr, ptr, ptr, i32 }
%struct.nstime_t = type { i64, i32 }
%struct._address = type { i32, i32, ptr, ptr }
%struct.anon = type { i8, [3 x i8] }

@hf_swils_zone_objname = internal global i32 0, align 4
@hf_swils_zone_objtype = internal global i32 0, align 4
@hf_swils_zone_mbrtype = internal global i32 0, align 4
@hf_swils_zone_protocol = internal global i32 0, align 4
@hf_swils_zone_mbrid = internal global i32 0, align 4
@hf_swils_zone_mbrid_fcwwn = internal global i32 0, align 4
@hf_swils_zone_mbrid_fc = internal global i32 0, align 4
@hf_swils_zone_mbrid_uint = internal global i32 0, align 4
@hf_swils_zone_mbrid_lun = internal global i32 0, align 4
@hf_swils_zone_mbrflags = internal global i32 0, align 4
@hf_swils_zone_mbr_identifier_length = internal global i32 0, align 4
@hf_swils_zone_num_members = internal global i32 0, align 4
@ett_fcswils_zonembr = internal global i32 0, align 4
@ei_swils_zone_mbrid = internal global %struct.expert_field zeroinitializer, align 4
@.str.421 = private unnamed_addr constant [15 x i8] c"Zone Member %d\00", align 1

; Function Attrs: nounwind uwtable
define internal void @dissect_swils_zone_mbr(ptr noundef %0, ptr noundef %1, ptr noundef %2, i32 noundef %3) #0 {
  %5 = alloca ptr, align 8
  %6 = alloca ptr, align 8
  %7 = alloca ptr, align 8
  %8 = alloca i32, align 4
  %9 = alloca i8, align 1
  %10 = alloca i32, align 4
  %11 = alloca ptr, align 8
  store ptr %0, ptr %5, align 8
  store ptr %1, ptr %6, align 8
  store ptr %2, ptr %7, align 8
  store i32 %3, ptr %8, align 4
  %12 = load ptr, ptr %5, align 8
  %13 = load i32, ptr %8, align 4
  %14 = call zeroext i8 @tvb_get_guint8(ptr noundef %12, i32 noundef %13)
  store i8 %14, ptr %9, align 1
  %15 = load ptr, ptr %7, align 8
  %16 = load i32, ptr @hf_swils_zone_mbrtype, align 4
  %17 = load ptr, ptr %5, align 8
  %18 = load i32, ptr %8, align 4
  %19 = load i8, ptr %9, align 1
  %20 = zext i8 %19 to i32
  %21 = call ptr @proto_tree_add_uint(ptr noundef %15, i32 noundef %16, ptr noundef %17, i32 noundef %18, i32 noundef 1, i32 noundef %20)
  store ptr %21, ptr %11, align 8
  %22 = load ptr, ptr %7, align 8
  %23 = load i32, ptr @hf_swils_zone_mbrflags, align 4
  %24 = load ptr, ptr %5, align 8
  %25 = load i32, ptr %8, align 4
  %26 = add i32 %25, 2
  %27 = call ptr @proto_tree_add_item(ptr noundef %22, i32 noundef %23, ptr noundef %24, i32 noundef %26, i32 noundef 1, i32 noundef 0)
  %28 = load ptr, ptr %5, align 8
  %29 = load i32, ptr %8, align 4
  %30 = add i32 %29, 3
  %31 = call zeroext i8 @tvb_get_guint8(ptr noundef %28, i32 noundef %30)
  %32 = zext i8 %31 to i32
  store i32 %32, ptr %10, align 4
  %33 = load ptr, ptr %7, align 8
  %34 = load i32, ptr @hf_swils_zone_mbr_identifier_length, align 4
  %35 = load ptr, ptr %5, align 8
  %36 = load i32, ptr %8, align 4
  %37 = add i32 %36, 3
  %38 = call ptr @proto_tree_add_item(ptr noundef %33, i32 noundef %34, ptr noundef %35, i32 noundef %37, i32 noundef 1, i32 noundef 0)
  %39 = load i8, ptr %9, align 1
  %40 = zext i8 %39 to i32
  switch i32 %40, label %116 [
    i32 1, label %41
    i32 2, label %48
    i32 3, label %55
    i32 4, label %62
    i32 225, label %77
    i32 226, label %90
    i32 227, label %103
  ]

41:                                               ; preds = %4
  %42 = load ptr, ptr %7, align 8
  %43 = load i32, ptr @hf_swils_zone_mbrid_fcwwn, align 4
  %44 = load ptr, ptr %5, align 8
  %45 = load i32, ptr %8, align 4
  %46 = add i32 %45, 4
  %47 = call ptr @proto_tree_add_item(ptr noundef %42, i32 noundef %43, ptr noundef %44, i32 noundef %46, i32 noundef 8, i32 noundef 0)
  br label %120

48:                                               ; preds = %4
  %49 = load ptr, ptr %7, align 8
  %50 = load i32, ptr @hf_swils_zone_mbrid_uint, align 4
  %51 = load ptr, ptr %5, align 8
  %52 = load i32, ptr %8, align 4
  %53 = add i32 %52, 4
  %54 = call ptr @proto_tree_add_item(ptr noundef %49, i32 noundef %50, ptr noundef %51, i32 noundef %53, i32 noundef 4, i32 noundef 0)
  br label %120

55:                                               ; preds = %4
  %56 = load ptr, ptr %7, align 8
  %57 = load i32, ptr @hf_swils_zone_mbrid_fc, align 4
  %58 = load ptr, ptr %5, align 8
  %59 = load i32, ptr %8, align 4
  %60 = add i32 %59, 4
  %61 = call ptr @proto_tree_add_item(ptr noundef %56, i32 noundef %57, ptr noundef %58, i32 noundef %60, i32 noundef 3, i32 noundef 0)
  br label %120

62:                                               ; preds = %4
  %63 = load ptr, ptr %7, align 8
  %64 = load i32, ptr @hf_swils_zone_mbrid, align 4
  %65 = load ptr, ptr %5, align 8
  %66 = load i32, ptr %8, align 4
  %67 = add i32 %66, 4
  %68 = load i32, ptr %10, align 4
  %69 = load ptr, ptr %6, align 8
  %70 = getelementptr inbounds %struct._packet_info, ptr %69, i32 0, i32 50
  %71 = load ptr, ptr %70, align 8
  %72 = load ptr, ptr %5, align 8
  %73 = load i32, ptr %8, align 4
  %74 = add i32 %73, 4
  %75 = call ptr @zonenm_to_str(ptr noundef %71, ptr noundef %72, i32 noundef %74)
  %76 = call ptr @proto_tree_add_string(ptr noundef %63, i32 noundef %64, ptr noundef %65, i32 noundef %67, i32 noundef %68, ptr noundef %75)
  br label %120

77:                                               ; preds = %4
  %78 = load ptr, ptr %7, align 8
  %79 = load i32, ptr @hf_swils_zone_mbrid_fcwwn, align 4
  %80 = load ptr, ptr %5, align 8
  %81 = load i32, ptr %8, align 4
  %82 = add i32 %81, 4
  %83 = call ptr @proto_tree_add_item(ptr noundef %78, i32 noundef %79, ptr noundef %80, i32 noundef %82, i32 noundef 8, i32 noundef 0)
  %84 = load ptr, ptr %7, align 8
  %85 = load i32, ptr @hf_swils_zone_mbrid_lun, align 4
  %86 = load ptr, ptr %5, align 8
  %87 = load i32, ptr %8, align 4
  %88 = add i32 %87, 12
  %89 = call ptr @proto_tree_add_item(ptr noundef %84, i32 noundef %85, ptr noundef %86, i32 noundef %88, i32 noundef 8, i32 noundef 0)
  br label %120

90:                                               ; preds = %4
  %91 = load ptr, ptr %7, align 8
  %92 = load i32, ptr @hf_swils_zone_mbrid_uint, align 4
  %93 = load ptr, ptr %5, align 8
  %94 = load i32, ptr %8, align 4
  %95 = add i32 %94, 4
  %96 = call ptr @proto_tree_add_item(ptr noundef %91, i32 noundef %92, ptr noundef %93, i32 noundef %95, i32 noundef 4, i32 noundef 0)
  %97 = load ptr, ptr %7, align 8
  %98 = load i32, ptr @hf_swils_zone_mbrid_lun, align 4
  %99 = load ptr, ptr %5, align 8
  %100 = load i32, ptr %8, align 4
  %101 = add i32 %100, 8
  %102 = call ptr @proto_tree_add_item(ptr noundef %97, i32 noundef %98, ptr noundef %99, i32 noundef %101, i32 noundef 8, i32 noundef 0)
  br label %120

103:                                              ; preds = %4
  %104 = load ptr, ptr %7, align 8
  %105 = load i32, ptr @hf_swils_zone_mbrid_fc, align 4
  %106 = load ptr, ptr %5, align 8
  %107 = load i32, ptr %8, align 4
  %108 = add i32 %107, 4
  %109 = call ptr @proto_tree_add_item(ptr noundef %104, i32 noundef %105, ptr noundef %106, i32 noundef %108, i32 noundef 3, i32 noundef 0)
  %110 = load ptr, ptr %7, align 8
  %111 = load i32, ptr @hf_swils_zone_mbrid_lun, align 4
  %112 = load ptr, ptr %5, align 8
  %113 = load i32, ptr %8, align 4
  %114 = add i32 %113, 8
  %115 = call ptr @proto_tree_add_item(ptr noundef %110, i32 noundef %111, ptr noundef %112, i32 noundef %114, i32 noundef 8, i32 noundef 0)
  br label %120

116:                                              ; preds = %4
  %117 = load ptr, ptr %6, align 8
  %118 = load ptr, ptr %11, align 8
  %119 = call ptr @expert_add_info(ptr noundef %117, ptr noundef %118, ptr noundef @ei_swils_zone_mbrid)
  br label %120

120:                                              ; preds = %116, %103, %90, %77, %62, %55, %48, %41
  ret void
}

; Function Attrs: nounwind uwtable
define internal ptr @zonenm_to_str(ptr noundef %0, ptr noundef %1, i32 noundef %2) #0 {
  %4 = alloca ptr, align 8
  %5 = alloca ptr, align 8
  %6 = alloca i32, align 4
  %7 = alloca i32, align 4
  store ptr %0, ptr %4, align 8
  store ptr %1, ptr %5, align 8
  store i32 %2, ptr %6, align 4
  %8 = load ptr, ptr %5, align 8
  %9 = load i32, ptr %6, align 4
  %10 = call zeroext i8 @tvb_get_guint8(ptr noundef %8, i32 noundef %9)
  %11 = zext i8 %10 to i32
  store i32 %11, ptr %7, align 4
  %12 = load ptr, ptr %4, align 8
  %13 = load ptr, ptr %5, align 8
  %14 = load i32, ptr %6, align 4
  %15 = add i32 %14, 4
  %16 = load i32, ptr %7, align 4
  %17 = call ptr @tvb_get_string_enc(ptr noundef %12, ptr noundef %13, i32 noundef %15, i32 noundef %16, i32 noundef 0)
  ret ptr %17
}

; Function Attrs: nounwind uwtable
define internal void @dissect_swils_zone_obj(ptr noundef %0, ptr noundef %1, ptr noundef %2, i32 noundef %3) #0 {
  %5 = alloca ptr, align 8
  %6 = alloca ptr, align 8
  %7 = alloca ptr, align 8
  %8 = alloca i32, align 4
  %9 = alloca ptr, align 8
  %10 = alloca i32, align 4
  %11 = alloca i32, align 4
  %12 = alloca i32, align 4
  %13 = alloca i32, align 4
  %14 = alloca ptr, align 8
  store ptr %0, ptr %5, align 8
  store ptr %1, ptr %6, align 8
  store ptr %2, ptr %7, align 8
  store i32 %3, ptr %8, align 4
  %15 = load ptr, ptr %5, align 8
  %16 = load i32, ptr %8, align 4
  %17 = call zeroext i8 @tvb_get_guint8(ptr noundef %15, i32 noundef %16)
  %18 = zext i8 %17 to i32
  store i32 %18, ptr %13, align 4
  %19 = load ptr, ptr %7, align 8
  %20 = load i32, ptr @hf_swils_zone_objtype, align 4
  %21 = load ptr, ptr %5, align 8
  %22 = load i32, ptr %8, align 4
  %23 = call ptr @proto_tree_add_item(ptr noundef %19, i32 noundef %20, ptr noundef %21, i32 noundef %22, i32 noundef 1, i32 noundef 0)
  %24 = load ptr, ptr %7, align 8
  %25 = load i32, ptr @hf_swils_zone_protocol, align 4
  %26 = load ptr, ptr %5, align 8
  %27 = load i32, ptr %8, align 4
  %28 = add i32 %27, 1
  %29 = call ptr @proto_tree_add_item(ptr noundef %24, i32 noundef %25, ptr noundef %26, i32 noundef %28, i32 noundef 1, i32 noundef 0)
  %30 = load ptr, ptr %6, align 8
  %31 = getelementptr inbounds %struct._packet_info, ptr %30, i32 0, i32 50
  %32 = load ptr, ptr %31, align 8
  %33 = load ptr, ptr %5, align 8
  %34 = load i32, ptr %8, align 4
  %35 = add i32 %34, 4
  %36 = call ptr @zonenm_to_str(ptr noundef %32, ptr noundef %33, i32 noundef %35)
  store ptr %36, ptr %14, align 8
  %37 = load ptr, ptr %7, align 8
  %38 = load i32, ptr @hf_swils_zone_objname, align 4
  %39 = load ptr, ptr %5, align 8
  %40 = load i32, ptr %8, align 4
  %41 = add i32 %40, 4
  %42 = load ptr, ptr %5, align 8
  %43 = load i32, ptr %8, align 4
  %44 = add i32 %43, 4
  %45 = call zeroext i8 @tvb_get_guint8(ptr noundef %42, i32 noundef %44)
  %46 = zext i8 %45 to i32
  %47 = add i32 %46, 4
  %48 = load ptr, ptr %14, align 8
  %49 = call ptr @proto_tree_add_string(ptr noundef %37, i32 noundef %38, ptr noundef %39, i32 noundef %41, i32 noundef %47, ptr noundef %48)
  %50 = load ptr, ptr %5, align 8
  %51 = load i32, ptr %8, align 4
  %52 = add i32 %51, 4
  %53 = load ptr, ptr %5, align 8
  %54 = load i32, ptr %8, align 4
  %55 = add i32 %54, 4
  %56 = call zeroext i8 @tvb_get_guint8(ptr noundef %53, i32 noundef %55)
  %57 = zext i8 %56 to i32
  %58 = add i32 %57, 4
  %59 = add i32 %52, %58
  %60 = call i32 @tvb_get_ntohl(ptr noundef %50, i32 noundef %59)
  store i32 %60, ptr %11, align 4
  %61 = load ptr, ptr %7, align 8
  %62 = load i32, ptr @hf_swils_zone_num_members, align 4
  %63 = load ptr, ptr %5, align 8
  %64 = load i32, ptr %8, align 4
  %65 = add i32 %64, 4
  %66 = load ptr, ptr %5, align 8
  %67 = load i32, ptr %8, align 4
  %68 = add i32 %67, 4
  %69 = call zeroext i8 @tvb_get_guint8(ptr noundef %66, i32 noundef %68)
  %70 = zext i8 %69 to i32
  %71 = add i32 %70, 4
  %72 = add i32 %65, %71
  %73 = call ptr @proto_tree_add_item(ptr noundef %61, i32 noundef %62, ptr noundef %63, i32 noundef %72, i32 noundef 4, i32 noundef 0)
  %74 = load ptr, ptr %5, align 8
  %75 = load i32, ptr %8, align 4
  %76 = add i32 %75, 4
  %77 = call zeroext i8 @tvb_get_guint8(ptr noundef %74, i32 noundef %76)
  %78 = zext i8 %77 to i32
  %79 = add i32 %78, 4
  %80 = add i32 8, %79
  %81 = load i32, ptr %8, align 4
  %82 = add i32 %81, %80
  store i32 %82, ptr %8, align 4
  store i32 0, ptr %12, align 4
  br label %83

83:                                               ; preds = %122, %4
  %84 = load i32, ptr %12, align 4
  %85 = load i32, ptr %11, align 4
  %86 = icmp slt i32 %84, %85
  br i1 %86, label %87, label %125

87:                                               ; preds = %83
  %88 = load i32, ptr %13, align 4
  %89 = icmp eq i32 %88, 1
  br i1 %89, label %90, label %100

90:                                               ; preds = %87
  %91 = load ptr, ptr %5, align 8
  %92 = load ptr, ptr %6, align 8
  %93 = load ptr, ptr %7, align 8
  %94 = load i32, ptr %8, align 4
  call void @dissect_swils_zone_obj(ptr noundef %91, ptr noundef %92, ptr noundef %93, i32 noundef %94)
  %95 = load ptr, ptr %5, align 8
  %96 = load i32, ptr %8, align 4
  %97 = call i32 @get_zoneobj_len(ptr noundef %95, i32 noundef %96)
  %98 = load i32, ptr %8, align 4
  %99 = add i32 %98, %97
  store i32 %99, ptr %8, align 4
  br label %121

100:                                              ; preds = %87
  %101 = load ptr, ptr %5, align 8
  %102 = load i32, ptr %8, align 4
  %103 = add i32 %102, 3
  %104 = call zeroext i8 @tvb_get_guint8(ptr noundef %101, i32 noundef %103)
  %105 = zext i8 %104 to i32
  %106 = add i32 4, %105
  store i32 %106, ptr %10, align 4
  %107 = load ptr, ptr %7, align 8
  %108 = load ptr, ptr %5, align 8
  %109 = load i32, ptr %8, align 4
  %110 = load i32, ptr %10, align 4
  %111 = load i32, ptr @ett_fcswils_zonembr, align 4
  %112 = load i32, ptr %12, align 4
  %113 = call ptr (ptr, ptr, i32, i32, i32, ptr, ptr, ...) @proto_tree_add_subtree_format(ptr noundef %107, ptr noundef %108, i32 noundef %109, i32 noundef %110, i32 noundef %111, ptr noundef null, ptr noundef @.str.421, i32 noundef %112)
  store ptr %113, ptr %9, align 8
  %114 = load ptr, ptr %5, align 8
  %115 = load ptr, ptr %6, align 8
  %116 = load ptr, ptr %9, align 8
  %117 = load i32, ptr %8, align 4
  call void @dissect_swils_zone_mbr(ptr noundef %114, ptr noundef %115, ptr noundef %116, i32 noundef %117)
  %118 = load i32, ptr %10, align 4
  %119 = load i32, ptr %8, align 4
  %120 = add i32 %119, %118
  store i32 %120, ptr %8, align 4
  br label %121

121:                                              ; preds = %100, %90
  br label %122

122:                                              ; preds = %121
  %123 = load i32, ptr %12, align 4
  %124 = add i32 %123, 1
  store i32 %124, ptr %12, align 4
  br label %83, !llvm.loop !20

125:                                              ; preds = %83
  ret void
}