; Function Attrs: nounwind uwtable
define internal fastcc void @dissect_swils_zone_obj(ptr noundef %0, ptr noundef %1, ptr noundef %2, i32 noundef %3) unnamed_addr #0 {
  %5 = tail call zeroext i8 @tvb_get_guint8(ptr noundef %0, i32 noundef %3) #7
  %6 = load i32, ptr @hf_swils_zone_objtype, align 4
  %7 = tail call ptr @proto_tree_add_item(ptr noundef %2, i32 noundef %6, ptr noundef %0, i32 noundef %3, i32 noundef 1, i32 noundef 0) #7
  %8 = load i32, ptr @hf_swils_zone_protocol, align 4
  %9 = add i32 %3, 1
  %10 = tail call ptr @proto_tree_add_item(ptr noundef %2, i32 noundef %8, ptr noundef %0, i32 noundef %9, i32 noundef 1, i32 noundef 0) #7
  %11 = getelementptr inbounds nuw i8, ptr %1, i64 408
  %12 = load ptr, ptr %11, align 8
  %13 = add i32 %3, 4
  %14 = tail call zeroext i8 @tvb_get_guint8(ptr noundef %0, i32 noundef %13) #7
  %15 = zext i8 %14 to i32
  %16 = add i32 %3, 8
  %17 = tail call ptr @tvb_get_string_enc(ptr noundef %12, ptr noundef %0, i32 noundef %16, i32 noundef %15, i32 noundef 0) #7
  %18 = load i32, ptr @hf_swils_zone_objname, align 4
  %19 = tail call zeroext i8 @tvb_get_guint8(ptr noundef %0, i32 noundef %13) #7
  %20 = zext i8 %19 to i32
  %21 = add nuw nsw i32 %20, 4
  %22 = tail call ptr @proto_tree_add_string(ptr noundef %2, i32 noundef %18, ptr noundef %0, i32 noundef %13, i32 noundef %21, ptr noundef %17) #7
  %23 = tail call zeroext i8 @tvb_get_guint8(ptr noundef %0, i32 noundef %13) #7
  %24 = zext i8 %23 to i32
  %25 = add i32 %16, %24
  %26 = tail call i32 @tvb_get_ntohl(ptr noundef %0, i32 noundef %25) #7
  %27 = load i32, ptr @hf_swils_zone_num_members, align 4
  %28 = tail call zeroext i8 @tvb_get_guint8(ptr noundef %0, i32 noundef %13) #7
  %29 = zext i8 %28 to i32
  %30 = add i32 %16, %29
  %31 = tail call ptr @proto_tree_add_item(ptr noundef %2, i32 noundef %27, ptr noundef %0, i32 noundef %30, i32 noundef 4, i32 noundef 0) #7
  %32 = tail call zeroext i8 @tvb_get_guint8(ptr noundef %0, i32 noundef %13) #7
  %33 = icmp sgt i32 %26, 0
  br i1 %33, label %.lr.ph, label %._crit_edge

.lr.ph:                                           ; preds = %4
  %34 = add i32 %3, 12
  %35 = zext i8 %32 to i32
  %36 = add i32 %34, %35
  %37 = icmp eq i8 %5, 1
  br i1 %37, label %dissect_swils_zone_mbr.exit.us, label %.lr.ph.split

dissect_swils_zone_mbr.exit.us:                   ; preds = %.lr.ph, %dissect_swils_zone_mbr.exit.us
  %.054.us = phi i32 [ %.1.us, %dissect_swils_zone_mbr.exit.us ], [ %36, %.lr.ph ]
  %.05253.us = phi i32 [ %39, %dissect_swils_zone_mbr.exit.us ], [ 0, %.lr.ph ]
  tail call fastcc void @dissect_swils_zone_obj(ptr noundef %0, ptr noundef %1, ptr noundef %2, i32 noundef %.054.us)
  %38 = tail call fastcc i32 @get_zoneobj_len(ptr noundef %0, i32 noundef %.054.us)
  %.1.us = add i32 %38, %.054.us
  %39 = add nuw nsw i32 %.05253.us, 1
  %exitcond56.not = icmp eq i32 %39, %26
  br i1 %exitcond56.not, label %._crit_edge, label %dissect_swils_zone_mbr.exit.us, !llvm.loop !23

.lr.ph.split:                                     ; preds = %.lr.ph, %dissect_swils_zone_mbr.exit
  %.054 = phi i32 [ %.1, %dissect_swils_zone_mbr.exit ], [ %36, %.lr.ph ]
  %.05253 = phi i32 [ %101, %dissect_swils_zone_mbr.exit ], [ 0, %.lr.ph ]
  %40 = add i32 %.054, 3
  %41 = tail call zeroext i8 @tvb_get_guint8(ptr noundef %0, i32 noundef %40) #7
  %42 = zext i8 %41 to i32
  %43 = add nuw nsw i32 %42, 4
  %44 = load i32, ptr @ett_fcswils_zonembr, align 4
  %45 = tail call ptr (ptr, ptr, i32, i32, i32, ptr, ptr, ...) @proto_tree_add_subtree_format(ptr noundef %2, ptr noundef %0, i32 noundef %.054, i32 noundef %43, i32 noundef %44, ptr noundef null, ptr noundef nonnull @.str.421, i32 noundef %.05253) #7
  %46 = tail call zeroext i8 @tvb_get_guint8(ptr noundef %0, i32 noundef %.054) #7
  %47 = load i32, ptr @hf_swils_zone_mbrtype, align 4
  %48 = zext i8 %46 to i32
  %49 = tail call ptr @proto_tree_add_uint(ptr noundef %45, i32 noundef %47, ptr noundef %0, i32 noundef %.054, i32 noundef 1, i32 noundef %48) #7
  %50 = load i32, ptr @hf_swils_zone_mbrflags, align 4
  %51 = add i32 %.054, 2
  %52 = tail call ptr @proto_tree_add_item(ptr noundef %45, i32 noundef %50, ptr noundef %0, i32 noundef %51, i32 noundef 1, i32 noundef 0) #7
  %53 = tail call zeroext i8 @tvb_get_guint8(ptr noundef %0, i32 noundef %40) #7
  %54 = load i32, ptr @hf_swils_zone_mbr_identifier_length, align 4
  %55 = tail call ptr @proto_tree_add_item(ptr noundef %45, i32 noundef %54, ptr noundef %0, i32 noundef %40, i32 noundef 1, i32 noundef 0) #7
  switch i8 %46, label %99 [
    i8 1, label %56
    i8 2, label %60
    i8 3, label %64
    i8 4, label %68
    i8 -31, label %78
    i8 -30, label %85
    i8 -29, label %92
  ]

56:                                               ; preds = %.lr.ph.split
  %57 = load i32, ptr @hf_swils_zone_mbrid_fcwwn, align 4
  %58 = add i32 %.054, 4
  %59 = tail call ptr @proto_tree_add_item(ptr noundef %45, i32 noundef %57, ptr noundef %0, i32 noundef %58, i32 noundef 8, i32 noundef 0) #7
  br label %dissect_swils_zone_mbr.exit

60:                                               ; preds = %.lr.ph.split
  %61 = load i32, ptr @hf_swils_zone_mbrid_uint, align 4
  %62 = add i32 %.054, 4
  %63 = tail call ptr @proto_tree_add_item(ptr noundef %45, i32 noundef %61, ptr noundef %0, i32 noundef %62, i32 noundef 4, i32 noundef 0) #7
  br label %dissect_swils_zone_mbr.exit

64:                                               ; preds = %.lr.ph.split
  %65 = load i32, ptr @hf_swils_zone_mbrid_fc, align 4
  %66 = add i32 %.054, 4
  %67 = tail call ptr @proto_tree_add_item(ptr noundef %45, i32 noundef %65, ptr noundef %0, i32 noundef %66, i32 noundef 3, i32 noundef 0) #7
  br label %dissect_swils_zone_mbr.exit

68:                                               ; preds = %.lr.ph.split
  %69 = zext i8 %53 to i32
  %70 = load i32, ptr @hf_swils_zone_mbrid, align 4
  %71 = add i32 %.054, 4
  %72 = load ptr, ptr %11, align 8
  %73 = tail call zeroext i8 @tvb_get_guint8(ptr noundef %0, i32 noundef %71) #7
  %74 = zext i8 %73 to i32
  %75 = add i32 %.054, 8
  %76 = tail call ptr @tvb_get_string_enc(ptr noundef %72, ptr noundef %0, i32 noundef %75, i32 noundef %74, i32 noundef 0) #7
  %77 = tail call ptr @proto_tree_add_string(ptr noundef %45, i32 noundef %70, ptr noundef %0, i32 noundef %71, i32 noundef %69, ptr noundef %76) #7
  br label %dissect_swils_zone_mbr.exit

78:                                               ; preds = %.lr.ph.split
  %79 = load i32, ptr @hf_swils_zone_mbrid_fcwwn, align 4
  %80 = add i32 %.054, 4
  %81 = tail call ptr @proto_tree_add_item(ptr noundef %45, i32 noundef %79, ptr noundef %0, i32 noundef %80, i32 noundef 8, i32 noundef 0) #7
  %82 = load i32, ptr @hf_swils_zone_mbrid_lun, align 4
  %83 = add i32 %.054, 12
  %84 = tail call ptr @proto_tree_add_item(ptr noundef %45, i32 noundef %82, ptr noundef %0, i32 noundef %83, i32 noundef 8, i32 noundef 0) #7
  br label %dissect_swils_zone_mbr.exit

85:                                               ; preds = %.lr.ph.split
  %86 = load i32, ptr @hf_swils_zone_mbrid_uint, align 4
  %87 = add i32 %.054, 4
  %88 = tail call ptr @proto_tree_add_item(ptr noundef %45, i32 noundef %86, ptr noundef %0, i32 noundef %87, i32 noundef 4, i32 noundef 0) #7
  %89 = load i32, ptr @hf_swils_zone_mbrid_lun, align 4
  %90 = add i32 %.054, 8
  %91 = tail call ptr @proto_tree_add_item(ptr noundef %45, i32 noundef %89, ptr noundef %0, i32 noundef %90, i32 noundef 8, i32 noundef 0) #7
  br label %dissect_swils_zone_mbr.exit

92:                                               ; preds = %.lr.ph.split
  %93 = load i32, ptr @hf_swils_zone_mbrid_fc, align 4
  %94 = add i32 %.054, 4
  %95 = tail call ptr @proto_tree_add_item(ptr noundef %45, i32 noundef %93, ptr noundef %0, i32 noundef %94, i32 noundef 3, i32 noundef 0) #7
  %96 = load i32, ptr @hf_swils_zone_mbrid_lun, align 4
  %97 = add i32 %.054, 8
  %98 = tail call ptr @proto_tree_add_item(ptr noundef %45, i32 noundef %96, ptr noundef %0, i32 noundef %97, i32 noundef 8, i32 noundef 0) #7
  br label %dissect_swils_zone_mbr.exit

99:                                               ; preds = %.lr.ph.split
  %100 = tail call ptr @expert_add_info(ptr noundef %1, ptr noundef %49, ptr noundef nonnull @ei_swils_zone_mbrid) #7
  br label %dissect_swils_zone_mbr.exit

dissect_swils_zone_mbr.exit:                      ; preds = %99, %92, %85, %78, %68, %64, %60, %56
  %.1 = add i32 %43, %.054
  %101 = add nuw nsw i32 %.05253, 1
  %exitcond.not = icmp eq i32 %101, %26
  br i1 %exitcond.not, label %._crit_edge, label %.lr.ph.split, !llvm.loop !23

._crit_edge:                                      ; preds = %dissect_swils_zone_mbr.exit, %dissect_swils_zone_mbr.exit.us, %4
  ret void
}